target datalayout = "e-m:e-p270:32:32-p271:32:32-p272:64:64-i64:64-i128:128-f80:128-n8:16:32:64-S128"
target triple = "x86_64-pc-linux-gnu"

%"class.clang::SourceLocation" = type { i32 }
%"class.llvm::SmallVectorBase" = type { ptr, i32, i32 }
%"class.clang::Parser" = type { %"class.clang::CodeCompletionHandler", ptr, %"class.clang::Token", %"class.clang::SourceLocation", %"class.clang::PreferredTypeBuilder", i16, i16, i16, i16, ptr, ptr, i32, [16 x ptr], ptr, ptr, ptr, ptr, ptr, ptr, ptr, ptr, ptr, ptr, ptr, ptr, ptr, ptr, ptr, ptr, ptr, ptr, ptr, ptr, ptr, ptr, ptr, ptr, ptr, ptr, ptr, ptr, ptr, ptr, ptr, ptr, ptr, ptr, ptr, %"class.llvm::SmallDenseMap", %"class.std::unique_ptr", %"class.std::unique_ptr", %"class.std::unique_ptr", %"class.std::unique_ptr", %"class.std::unique_ptr", %"class.std::unique_ptr", %"class.std::unique_ptr", %"class.std::unique_ptr", %"class.std::unique_ptr", %"class.std::unique_ptr", %"class.std::unique_ptr", %"class.std::unique_ptr", %"class.std::unique_ptr", %"class.std::unique_ptr", %"class.std::unique_ptr", %"class.std::unique_ptr", %"class.std::unique_ptr", %"class.std::unique_ptr", %"class.std::unique_ptr", %"class.std::unique_ptr", %"class.std::unique_ptr", %"class.std::unique_ptr", %"class.std::unique_ptr", %"class.std::unique_ptr", %"class.std::unique_ptr", %"class.std::unique_ptr", %"class.std::unique_ptr", %"class.std::unique_ptr", %"class.std::unique_ptr", %"class.std::unique_ptr", %"class.std::unique_ptr", %"class.std::unique_ptr", %"class.std::unique_ptr", %"class.std::unique_ptr", %"class.std::unique_ptr", %"class.std::unique_ptr", %"class.std::unique_ptr", %"class.std::unique_ptr", %"class.std::unique_ptr", %"class.std::unique_ptr", %"class.std::unique_ptr", %"class.std::unique_ptr", %"class.std::unique_ptr", %"class.std::unique_ptr", %"class.std::unique_ptr", %"class.std::unique_ptr", %"class.std::unique_ptr", %"class.std::unique_ptr", %"class.std::unique_ptr.2", i8, i8, i8, i8, i8, i8, i8, i32, i32, i32, %"class.clang::AttributeFactory", %"class.llvm::SmallVector.21", i8, %"class.llvm::SmallVector.26", %"struct.clang::Parser::AngleBracketTracker", i8, i8, %"class.clang::SourceLocation", %"class.clang::SourceLocation", %"class.std::stack", ptr, [9 x ptr] }
%"class.clang::CodeCompletionHandler" = type { ptr }
%"class.clang::Token" = type <{ i32, i32, ptr, i16, i16, [4 x i8] }>
%"class.clang::PreferredTypeBuilder" = type { i8, %"class.clang::SourceLocation", %"class.clang::QualType", %"class.llvm::function_ref" }
%"class.clang::QualType" = type { %"class.llvm::PointerIntPair" }
%"class.llvm::PointerIntPair" = type { %"struct.llvm::detail::PunnedPointer" }
%"struct.llvm::detail::PunnedPointer" = type { [8 x i8] }
%"class.llvm::function_ref" = type { ptr, i64 }
%"class.llvm::SmallDenseMap" = type { i32, i32, %"struct.llvm::AlignedCharArrayUnion" }
%"struct.llvm::AlignedCharArrayUnion" = type { [64 x i8] }
%"class.std::unique_ptr" = type { %"struct.std::__uniq_ptr_data" }
%"struct.std::__uniq_ptr_data" = type { %"class.std::__uniq_ptr_impl" }
%"class.std::__uniq_ptr_impl" = type { %"class.std::tuple" }
%"class.std::tuple" = type { %"struct.std::_Tuple_impl" }
%"struct.std::_Tuple_impl" = type { %"struct.std::_Head_base.1" }
%"struct.std::_Head_base.1" = type { ptr }
%"class.std::unique_ptr.2" = type { %"struct.std::__uniq_ptr_data.3" }
%"struct.std::__uniq_ptr_data.3" = type { %"class.std::__uniq_ptr_impl.4" }
%"class.std::__uniq_ptr_impl.4" = type { %"class.std::tuple.5" }
%"class.std::tuple.5" = type { %"struct.std::_Tuple_impl.6" }
%"struct.std::_Tuple_impl.6" = type { %"struct.std::_Head_base.9" }
%"struct.std::_Head_base.9" = type { ptr }
%"class.clang::AttributeFactory" = type { %"class.llvm::BumpPtrAllocatorImpl", %"class.llvm::SmallVector.16" }
%"class.llvm::BumpPtrAllocatorImpl" = type { ptr, ptr, %"class.llvm::SmallVector", %"class.llvm::SmallVector.11", i64, i64 }
%"class.llvm::SmallVector" = type { %"class.llvm::SmallVectorImpl", %"struct.llvm::SmallVectorStorage" }
%"class.llvm::SmallVectorImpl" = type { %"class.llvm::SmallVectorTemplateBase" }
%"class.llvm::SmallVectorTemplateBase" = type { %"class.llvm::SmallVectorTemplateCommon" }
%"class.llvm::SmallVectorTemplateCommon" = type { %"class.llvm::SmallVectorBase" }
%"struct.llvm::SmallVectorStorage" = type { [32 x i8] }
%"class.llvm::SmallVector.11" = type { %"class.llvm::SmallVectorImpl.12" }
%"class.llvm::SmallVectorImpl.12" = type { %"class.llvm::SmallVectorTemplateBase.13" }
%"class.llvm::SmallVectorTemplateBase.13" = type { %"class.llvm::SmallVectorTemplateCommon.14" }
%"class.llvm::SmallVectorTemplateCommon.14" = type { %"class.llvm::SmallVectorBase" }
%"class.llvm::SmallVector.16" = type { %"class.llvm::SmallVectorImpl.17", %"struct.llvm::SmallVectorStorage.20" }
%"class.llvm::SmallVectorImpl.17" = type { %"class.llvm::SmallVectorTemplateBase.18" }
%"class.llvm::SmallVectorTemplateBase.18" = type { %"class.llvm::SmallVectorTemplateCommon.19" }
%"class.llvm::SmallVectorTemplateCommon.19" = type { %"class.llvm::SmallVectorBase" }
%"struct.llvm::SmallVectorStorage.20" = type { [1200 x i8] }
%"class.llvm::SmallVector.21" = type { %"class.llvm::SmallVectorImpl.22", %"struct.llvm::SmallVectorStorage.25" }
%"class.llvm::SmallVectorImpl.22" = type { %"class.llvm::SmallVectorTemplateBase.23" }
%"class.llvm::SmallVectorTemplateBase.23" = type { %"class.llvm::SmallVectorTemplateCommon.24" }
%"class.llvm::SmallVectorTemplateCommon.24" = type { %"class.llvm::SmallVectorBase" }
%"struct.llvm::SmallVectorStorage.25" = type { [128 x i8] }
%"class.llvm::SmallVector.26" = type { %"class.llvm::SmallVectorImpl.27", %"struct.llvm::SmallVectorStorage.30" }
%"class.llvm::SmallVectorImpl.27" = type { %"class.llvm::SmallVectorTemplateBase.28" }
%"class.llvm::SmallVectorTemplateBase.28" = type { %"class.llvm::SmallVectorTemplateCommon.29" }
%"class.llvm::SmallVectorTemplateCommon.29" = type { %"class.llvm::SmallVectorBase" }
%"struct.llvm::SmallVectorStorage.30" = type { [64 x i8] }
%"struct.clang::Parser::AngleBracketTracker" = type { %"class.llvm::SmallVector.31" }
%"class.llvm::SmallVector.31" = type { %"class.llvm::SmallVectorImpl.32", %"struct.llvm::SmallVectorStorage.35" }
%"class.llvm::SmallVectorImpl.32" = type { %"class.llvm::SmallVectorTemplateBase.33" }
%"class.llvm::SmallVectorTemplateBase.33" = type { %"class.llvm::SmallVectorTemplateCommon.34" }
%"class.llvm::SmallVectorTemplateCommon.34" = type { %"class.llvm::SmallVectorBase" }
%"struct.llvm::SmallVectorStorage.35" = type { [192 x i8] }
%"class.std::stack" = type { %"class.std::deque" }
%"class.std::deque" = type { %"class.std::_Deque_base" }
%"class.std::_Deque_base" = type { %"struct.std::_Deque_base<clang::Parser::ParsingClass *, std::allocator<clang::Parser::ParsingClass *>>::_Deque_impl" }
%"struct.std::_Deque_base<clang::Parser::ParsingClass *, std::allocator<clang::Parser::ParsingClass *>>::_Deque_impl" = type { %"struct.std::_Deque_base<clang::Parser::ParsingClass *, std::allocator<clang::Parser::ParsingClass *>>::_Deque_impl_data" }
%"struct.std::_Deque_base<clang::Parser::ParsingClass *, std::allocator<clang::Parser::ParsingClass *>>::_Deque_impl_data" = type { ptr, i64, %"struct.std::_Deque_iterator", %"struct.std::_Deque_iterator" }
%"struct.std::_Deque_iterator" = type { ptr, ptr, ptr, ptr }
%class.anon.1442 = type { ptr, ptr }

; Function Attrs: mustprogress nounwind uwtable
define linkonce_odr hidden void @_ZN5clang14SourceLocationC2Ev(ptr noundef nonnull align 4 dereferenceable(4) %0) unnamed_addr #0 comdat align 2 {
  %2 = alloca ptr, align 8
  store ptr %0, ptr %2, align 8
  %3 = load ptr, ptr %2, align 8
  %4 = getelementptr inbounds nuw %"class.clang::SourceLocation", ptr %3, i32 0, i32 0
  store i32 0, ptr %4, align 4
  ret void
}

; Function Attrs: mustprogress nounwind uwtable
define linkonce_odr hidden i32 @_ZN5clang14SourceLocation18getFromRawEncodingEj(i32 noundef %0) #0 comdat align 2 {
  %2 = alloca %"class.clang::SourceLocation", align 4
  %3 = alloca i32, align 4
  store i32 %0, ptr %3, align 4
  call void @_ZN5clang14SourceLocationC2Ev(ptr noundef nonnull align 4 dereferenceable(4) %2) #11
  %4 = load i32, ptr %3, align 4
  %5 = getelementptr inbounds nuw %"class.clang::SourceLocation", ptr %2, i32 0, i32 0
  store i32 %4, ptr %5, align 4
  %6 = getelementptr inbounds nuw %"class.clang::SourceLocation", ptr %2, i32 0, i32 0
  %7 = load i32, ptr %6, align 4
  ret i32 %7
}

; Function Attrs: mustprogress nounwind uwtable
define internal void @"_ZN4llvm12function_refIFN5clang8QualTypeEvEEC2IRZNS1_6Parser21ParseCXXNewExpressionEbNS1_14SourceLocationEE3$_1EEOT_PNSt9enable_ifIXntsr3std7is_sameINS_12remove_cvrefISA_E4typeES4_EE5valueEvE4typeEPNSC_IXooL_ZNSt17integral_constantIbLb0EE5valueEEsr3std14is_convertibleIDTclclsr3stdE7declvalISA_EEEES2_EE5valueEvE4typeE"(ptr noundef nonnull align 8 dereferenceable(16) %0, ptr noundef nonnull align 8 dereferenceable(32) %1, ptr noundef %2, ptr noundef %3) unnamed_addr #0 align 2 {
  %5 = alloca ptr, align 8
  %6 = alloca ptr, align 8
  %7 = alloca ptr, align 8
  %8 = alloca ptr, align 8
  store ptr %0, ptr %5, align 8
  store ptr %1, ptr %6, align 8
  store ptr %2, ptr %7, align 8
  store ptr %3, ptr %8, align 8
  %9 = load ptr, ptr %5, align 8
  %10 = getelementptr inbounds nuw %"class.llvm::function_ref", ptr %9, i32 0, i32 0
  store ptr @"_ZN4llvm12function_refIFN5clang8QualTypeEvEE11callback_fnIZNS1_6Parser21ParseCXXNewExpressionEbNS1_14SourceLocationEE3$_1EES2_l", ptr %10, align 8
  %11 = getelementptr inbounds nuw %"class.llvm::function_ref", ptr %9, i32 0, i32 1
  %12 = load ptr, ptr %6, align 8
  %13 = ptrtoint ptr %12 to i64
  store i64 %13, ptr %11, align 8
  ret void
}

; Function Attrs: mustprogress nounwind uwtable
define linkonce_odr hidden i32 @_ZNK5clang5Token11getLocationEv(ptr noundef nonnull align 8 dereferenceable(20) %0) #0 comdat align 2 {
  %2 = alloca %"class.clang::SourceLocation", align 4
  %3 = alloca ptr, align 8
  store ptr %0, ptr %3, align 8
  %4 = load ptr, ptr %3, align 8
  %5 = getelementptr inbounds nuw %"class.clang::Token", ptr %4, i32 0, i32 0
  %6 = load i32, ptr %5, align 8
  %7 = call i32 @_ZN5clang14SourceLocation18getFromRawEncodingEj(i32 noundef %6)
  %8 = getelementptr inbounds nuw %"class.clang::SourceLocation", ptr %2, i32 0, i32 0
  store i32 %7, ptr %8, align 4
  %9 = getelementptr inbounds nuw %"class.clang::SourceLocation", ptr %2, i32 0, i32 0
  %10 = load i32, ptr %9, align 4
  ret i32 %10
}

; Function Attrs: mustprogress nounwind uwtable
define internal void @"_ZZN5clang6Parser21ParseCXXNewExpressionEbNS_14SourceLocationEENK3$_0clEv"(ptr noundef nonnull align 8 dereferenceable(16) %0) #0 align 2 {
  %2 = alloca ptr, align 8
  %3 = alloca %"class.clang::SourceLocation", align 4
  %4 = alloca %"class.llvm::function_ref", align 8
  store ptr %0, ptr %2, align 8
  %5 = load ptr, ptr %2, align 8
  %6 = getelementptr inbounds nuw %class.anon.1442, ptr %5, i32 0, i32 0
  %7 = load ptr, ptr %6, align 8
  %8 = getelementptr inbounds nuw %"class.clang::Parser", ptr %7, i32 0, i32 4
  %9 = getelementptr inbounds nuw %"class.clang::Parser", ptr %7, i32 0, i32 2
  %10 = call i32 @_ZNK5clang5Token11getLocationEv(ptr noundef nonnull align 8 dereferenceable(20) %9)
  %11 = getelementptr inbounds nuw %"class.clang::SourceLocation", ptr %3, i32 0, i32 0
  store i32 %10, ptr %11, align 4
  %12 = getelementptr inbounds nuw %class.anon.1442, ptr %5, i32 0, i32 1
  %13 = load ptr, ptr %12, align 8
  call void @"_ZN4llvm12function_refIFN5clang8QualTypeEvEEC2IRZNS1_6Parser21ParseCXXNewExpressionEbNS1_14SourceLocationEE3$_1EEOT_PNSt9enable_ifIXntsr3std7is_sameINS_12remove_cvrefISA_E4typeES4_EE5valueEvE4typeEPNSC_IXooL_ZNSt17integral_constantIbLb0EE5valueEEsr3std14is_convertibleIDTclclsr3stdE7declvalISA_EEEES2_EE5valueEvE4typeE"(ptr noundef nonnull align 8 dereferenceable(16) %4, ptr noundef nonnull align 8 dereferenceable(32) %13, ptr noundef null, ptr noundef null)
  %14 = getelementptr inbounds nuw %"class.clang::SourceLocation", ptr %3, i32 0, i32 0
  %15 = load i32, ptr %14, align 4
  %16 = getelementptr inbounds nuw { ptr, i64 }, ptr %4, i32 0, i32 0
  %17 = load ptr, ptr %16, align 8
  %18 = getelementptr inbounds nuw { ptr, i64 }, ptr %4, i32 0, i32 1
  %19 = load i64, ptr %18, align 8
  call void @_ZN5clang20PreferredTypeBuilder21enterFunctionArgumentENS_14SourceLocationEN4llvm12function_refIFNS_8QualTypeEvEEE(ptr noundef nonnull align 8 dereferenceable(32) %8, i32 %15, ptr %17, i64 %19)
  ret void
}

; Function Attrs: mustprogress nounwind uwtable
define internal void @"_ZN4llvm12function_refIFvvEE11callback_fnIZN5clang6Parser21ParseCXXNewExpressionEbNS4_14SourceLocationEE3$_0EEvl"(i64 noundef %0) #0 align 2 {
  %2 = alloca i64, align 8
  store i64 %0, ptr %2, align 8
  %3 = load i64, ptr %2, align 8
  %4 = inttoptr i64 %3 to ptr
  call void @"_ZZN5clang6Parser21ParseCXXNewExpressionEbNS_14SourceLocationEENK3$_0clEv"(ptr noundef nonnull align 8 dereferenceable(16) %4)
  ret void
}