; Function Attrs: mustprogress nounwind uwtable
define internal void @"_ZN4llvm12function_refIFvvEE11callback_fnIZN5clang6Parser21ParseCXXNewExpressionEbNS4_14SourceLocationEE3$_0EEvl"(i64 noundef %0) #0 align 2 {
  %2 = inttoptr i64 %0 to ptr
  %.val = load ptr, ptr %2, align 8
  %3 = getelementptr i8, ptr %2, i64 8
  %.val1 = load ptr, ptr %3, align 8
  %4 = getelementptr inbounds nuw i8, ptr %.val, i64 48
  %5 = getelementptr inbounds nuw i8, ptr %.val, i64 16
  %6 = load i32, ptr %5, align 8
  %7 = ptrtoint ptr %.val1 to i64
  tail call void @_ZN5clang20PreferredTypeBuilder21enterFunctionArgumentENS_14SourceLocationEN4llvm12function_refIFNS_8QualTypeEvEEE(ptr noundef nonnull align 8 dereferenceable(32) %4, i32 %6, ptr nonnull @"_ZN4llvm12function_refIFN5clang8QualTypeEvEE11callback_fnIZNS1_6Parser21ParseCXXNewExpressionEbNS1_14SourceLocationEE3$_1EES2_l", i64 %7) #17
  ret void
}